; ModuleID = '46/3680.cpp'
source_filename = "46/3680.cpp"
target datalayout = "e-m:e-p270:32:32-p271:32:32-p272:64:64-i64:64-f80:128-n8:16:32:64-S128"
target triple = "x86_64-pc-linux-gnu"

%"class.std::ios_base::Init" = type { i8 }
%"class.std::basic_istream" = type { i32 (...)**, i64, %"class.std::basic_ios" }
%"class.std::basic_ios" = type { %"class.std::ios_base", %"class.std::basic_ostream"*, i8, i8, %"class.std::basic_streambuf"*, %"class.std::ctype"*, %"class.std::num_put"*, %"class.std::num_get"* }
%"class.std::ios_base" = type { i32 (...)**, i64, i64, i32, i32, i32, %"struct.std::ios_base::_Callback_list"*, %"struct.std::ios_base::_Words", [8 x %"struct.std::ios_base::_Words"], i32, %"struct.std::ios_base::_Words"*, %"class.std::locale" }
%"struct.std::ios_base::_Callback_list" = type { %"struct.std::ios_base::_Callback_list"*, void (i32, %"class.std::ios_base"*, i32)*, i32, i32 }
%"struct.std::ios_base::_Words" = type { i8*, i64 }
%"class.std::locale" = type { %"class.std::locale::_Impl"* }
%"class.std::locale::_Impl" = type { i32, %"class.std::locale::facet"**, i64, %"class.std::locale::facet"**, i8** }
%"class.std::locale::facet" = type <{ i32 (...)**, i32, [4 x i8] }>
%"class.std::basic_ostream" = type { i32 (...)**, %"class.std::basic_ios" }
%"class.std::basic_streambuf" = type { i32 (...)**, i8*, i8*, i8*, i8*, i8*, i8*, %"class.std::locale" }
%"class.std::ctype" = type <{ %"class.std::locale::facet.base", [4 x i8], %struct.__locale_struct*, i8, [7 x i8], i32*, i32*, i16*, i8, [256 x i8], [256 x i8], i8, [6 x i8] }>
%"class.std::locale::facet.base" = type <{ i32 (...)**, i32 }>
%struct.__locale_struct = type { [13 x %struct.__locale_data*], i16*, i32*, i32*, [13 x i8*] }
%struct.__locale_data = type opaque
%"class.std::num_put" = type { %"class.std::locale::facet.base", [4 x i8] }
%"class.std::num_get" = type { %"class.std::locale::facet.base", [4 x i8] }

@_ZStL8__ioinit = internal global %"class.std::ios_base::Init" zeroinitializer, align 1
@__dso_handle = external hidden global i8
@a = dso_local global [105 x [105 x i32]] zeroinitializer, align 16
@__const.main.dx = private unnamed_addr constant [4 x i32] [i32 0, i32 1, i32 0, i32 -1], align 16
@__const.main.dy = private unnamed_addr constant [4 x i32] [i32 1, i32 0, i32 -1, i32 0], align 16
@_ZSt3cin = external dso_local global %"class.std::basic_istream", align 8
@_ZSt4cout = external dso_local global %"class.std::basic_ostream", align 8
@llvm.global_ctors = appending global [1 x { i32, void ()*, i8* }] [{ i32, void ()*, i8* } { i32 65535, void ()* @_GLOBAL__sub_I_3680.cpp, i8* null }]

; Function Attrs: noinline uwtable
define internal void @__cxx_global_var_init() #0 section ".text.startup" {
  call void @_ZNSt8ios_base4InitC1Ev(%"class.std::ios_base::Init"* @_ZStL8__ioinit)
  %1 = call i32 @__cxa_atexit(void (i8*)* bitcast (void (%"class.std::ios_base::Init"*)* @_ZNSt8ios_base4InitD1Ev to void (i8*)*), i8* getelementptr inbounds (%"class.std::ios_base::Init", %"class.std::ios_base::Init"* @_ZStL8__ioinit, i32 0, i32 0), i8* @__dso_handle) #3
  ret void
}

declare dso_local void @_ZNSt8ios_base4InitC1Ev(%"class.std::ios_base::Init"*) unnamed_addr #1

; Function Attrs: nounwind
declare dso_local void @_ZNSt8ios_base4InitD1Ev(%"class.std::ios_base::Init"*) unnamed_addr #2

; Function Attrs: nounwind
declare dso_local i32 @__cxa_atexit(void (i8*)*, i8*, i8*) #3

; Function Attrs: noinline norecurse uwtable
define dso_local i32 @main() #4 {
  %1 = alloca i32, align 4
  %2 = alloca i32, align 4
  %3 = alloca i32, align 4
  %4 = alloca [4 x i32], align 16
  %5 = alloca [4 x i32], align 16
  %6 = alloca i32, align 4
  %7 = alloca i32, align 4
  %8 = alloca i32, align 4
  %9 = alloca i32, align 4
  %10 = alloca i32, align 4
  store i32 0, i32* %1, align 4
  %11 = bitcast [4 x i32]* %4 to i8*
  call void @llvm.memcpy.p0i8.p0i8.i64(i8* align 16 %11, i8* align 16 bitcast ([4 x i32]* @__const.main.dx to i8*), i64 16, i1 false)
  %12 = bitcast [4 x i32]* %5 to i8*
  call void @llvm.memcpy.p0i8.p0i8.i64(i8* align 16 %12, i8* align 16 bitcast ([4 x i32]* @__const.main.dy to i8*), i64 16, i1 false)
  store i32 1, i32* %6, align 4
  store i32 1, i32* %7, align 4
  store i32 0, i32* %8, align 4
  %13 = call dereferenceable(280) %"class.std::basic_istream"* @_ZNSirsERi(%"class.std::basic_istream"* @_ZSt3cin, i32* dereferenceable(4) %2)
  %14 = call dereferenceable(280) %"class.std::basic_istream"* @_ZNSirsERi(%"class.std::basic_istream"* %13, i32* dereferenceable(4) %3)
  store i32 1, i32* %9, align 4
  br label %15

15:                                               ; preds = %36, %0
  %16 = load i32, i32* %9, align 4
  %17 = load i32, i32* %2, align 4
  %18 = icmp sle i32 %16, %17
  br i1 %18, label %19, label %39

19:                                               ; preds = %15
  store i32 1, i32* %10, align 4
  br label %20

20:                                               ; preds = %32, %19
  %21 = load i32, i32* %10, align 4
  %22 = load i32, i32* %3, align 4
  %23 = icmp sle i32 %21, %22
  br i1 %23, label %24, label %35

24:                                               ; preds = %20
  %25 = load i32, i32* %9, align 4
  %26 = sext i32 %25 to i64
  %27 = getelementptr inbounds [105 x [105 x i32]], [105 x [105 x i32]]* @a, i64 0, i64 %26
  %28 = load i32, i32* %10, align 4
  %29 = sext i32 %28 to i64
  %30 = getelementptr inbounds [105 x i32], [105 x i32]* %27, i64 0, i64 %29
  %31 = call dereferenceable(280) %"class.std::basic_istream"* @_ZNSirsERi(%"class.std::basic_istream"* @_ZSt3cin, i32* dereferenceable(4) %30)
  br label %32

32:                                               ; preds = %24
  %33 = load i32, i32* %10, align 4
  %34 = add nsw i32 %33, 1
  store i32 %34, i32* %10, align 4
  br label %20

35:                                               ; preds = %20
  br label %36

36:                                               ; preds = %35
  %37 = load i32, i32* %9, align 4
  %38 = add nsw i32 %37, 1
  store i32 %38, i32* %9, align 4
  br label %15

39:                                               ; preds = %15
  br label %40

40:                                               ; preds = %39, %124
  %41 = load i32, i32* %6, align 4
  %42 = sext i32 %41 to i64
  %43 = getelementptr inbounds [105 x [105 x i32]], [105 x [105 x i32]]* @a, i64 0, i64 %42
  %44 = load i32, i32* %7, align 4
  %45 = sext i32 %44 to i64
  %46 = getelementptr inbounds [105 x i32], [105 x i32]* %43, i64 0, i64 %45
  %47 = load i32, i32* %46, align 4
  %48 = call dereferenceable(272) %"class.std::basic_ostream"* @_ZNSolsEi(%"class.std::basic_ostream"* @_ZSt4cout, i32 %47)
  %49 = call dereferenceable(272) %"class.std::basic_ostream"* @_ZNSolsEPFRSoS_E(%"class.std::basic_ostream"* %48, %"class.std::basic_ostream"* (%"class.std::basic_ostream"*)* @_ZSt4endlIcSt11char_traitsIcEERSt13basic_ostreamIT_T0_ES6_)
  %50 = load i32, i32* %6, align 4
  %51 = sext i32 %50 to i64
  %52 = getelementptr inbounds [105 x [105 x i32]], [105 x [105 x i32]]* @a, i64 0, i64 %51
  %53 = load i32, i32* %7, align 4
  %54 = sext i32 %53 to i64
  %55 = getelementptr inbounds [105 x i32], [105 x i32]* %52, i64 0, i64 %54
  store i32 0, i32* %55, align 4
  %56 = load i32, i32* %6, align 4
  %57 = load i32, i32* %8, align 4
  %58 = sext i32 %57 to i64
  %59 = getelementptr inbounds [4 x i32], [4 x i32]* %4, i64 0, i64 %58
  %60 = load i32, i32* %59, align 4
  %61 = add nsw i32 %56, %60
  %62 = sext i32 %61 to i64
  %63 = getelementptr inbounds [105 x [105 x i32]], [105 x [105 x i32]]* @a, i64 0, i64 %62
  %64 = load i32, i32* %7, align 4
  %65 = load i32, i32* %8, align 4
  %66 = sext i32 %65 to i64
  %67 = getelementptr inbounds [4 x i32], [4 x i32]* %5, i64 0, i64 %66
  %68 = load i32, i32* %67, align 4
  %69 = add nsw i32 %64, %68
  %70 = sext i32 %69 to i64
  %71 = getelementptr inbounds [105 x i32], [105 x i32]* %63, i64 0, i64 %70
  %72 = load i32, i32* %71, align 4
  %73 = icmp sgt i32 %72, 0
  br i1 %73, label %74, label %87

74:                                               ; preds = %40
  %75 = load i32, i32* %6, align 4
  %76 = load i32, i32* %8, align 4
  %77 = sext i32 %76 to i64
  %78 = getelementptr inbounds [4 x i32], [4 x i32]* %4, i64 0, i64 %77
  %79 = load i32, i32* %78, align 4
  %80 = add nsw i32 %75, %79
  store i32 %80, i32* %6, align 4
  %81 = load i32, i32* %7, align 4
  %82 = load i32, i32* %8, align 4
  %83 = sext i32 %82 to i64
  %84 = getelementptr inbounds [4 x i32], [4 x i32]* %5, i64 0, i64 %83
  %85 = load i32, i32* %84, align 4
  %86 = add nsw i32 %81, %85
  store i32 %86, i32* %7, align 4
  br label %124

87:                                               ; preds = %40
  %88 = load i32, i32* %8, align 4
  %89 = add nsw i32 %88, 1
  %90 = srem i32 %89, 4
  store i32 %90, i32* %8, align 4
  %91 = load i32, i32* %6, align 4
  %92 = load i32, i32* %8, align 4
  %93 = sext i32 %92 to i64
  %94 = getelementptr inbounds [4 x i32], [4 x i32]* %4, i64 0, i64 %93
  %95 = load i32, i32* %94, align 4
  %96 = add nsw i32 %91, %95
  %97 = sext i32 %96 to i64
  %98 = getelementptr inbounds [105 x [105 x i32]], [105 x [105 x i32]]* @a, i64 0, i64 %97
  %99 = load i32, i32* %7, align 4
  %100 = load i32, i32* %8, align 4
  %101 = sext i32 %100 to i64
  %102 = getelementptr inbounds [4 x i32], [4 x i32]* %5, i64 0, i64 %101
  %103 = load i32, i32* %102, align 4
  %104 = add nsw i32 %99, %103
  %105 = sext i32 %104 to i64
  %106 = getelementptr inbounds [105 x i32], [105 x i32]* %98, i64 0, i64 %105
  %107 = load i32, i32* %106, align 4
  %108 = icmp eq i32 %107, 0
  br i1 %108, label %109, label %110

109:                                              ; preds = %87
  br label %125

110:                                              ; preds = %87
  %111 = load i32, i32* %6, align 4
  %112 = load i32, i32* %8, align 4
  %113 = sext i32 %112 to i64
  %114 = getelementptr inbounds [4 x i32], [4 x i32]* %4, i64 0, i64 %113
  %115 = load i32, i32* %114, align 4
  %116 = add nsw i32 %111, %115
  store i32 %116, i32* %6, align 4
  %117 = load i32, i32* %7, align 4
  %118 = load i32, i32* %8, align 4
  %119 = sext i32 %118 to i64
  %120 = getelementptr inbounds [4 x i32], [4 x i32]* %5, i64 0, i64 %119
  %121 = load i32, i32* %120, align 4
  %122 = add nsw i32 %117, %121
  store i32 %122, i32* %7, align 4
  br label %123

123:                                              ; preds = %110
  br label %124

124:                                              ; preds = %123, %74
  br label %40

125:                                              ; preds = %109
  ret i32 0
}

; Function Attrs: argmemonly nounwind willreturn
declare void @llvm.memcpy.p0i8.p0i8.i64(i8* noalias nocapture writeonly, i8* noalias nocapture readonly, i64, i1 immarg) #5

declare dso_local dereferenceable(280) %"class.std::basic_istream"* @_ZNSirsERi(%"class.std::basic_istream"*, i32* dereferenceable(4)) #1

declare dso_local dereferenceable(272) %"class.std::basic_ostream"* @_ZNSolsEi(%"class.std::basic_ostream"*, i32) #1

declare dso_local dereferenceable(272) %"class.std::basic_ostream"* @_ZNSolsEPFRSoS_E(%"class.std::basic_ostream"*, %"class.std::basic_ostream"* (%"class.std::basic_ostream"*)*) #1

declare dso_local dereferenceable(272) %"class.std::basic_ostream"* @_ZSt4endlIcSt11char_traitsIcEERSt13basic_ostreamIT_T0_ES6_(%"class.std::basic_ostream"* dereferenceable(272)) #1

; Function Attrs: noinline uwtable
define internal void @_GLOBAL__sub_I_3680.cpp() #0 section ".text.startup" {
  call void @__cxx_global_var_init()
  ret void
}


!llvm.module.flags = !{!0}
!llvm.ident = !{!1}

!0 = !{i32 1, !"wchar_size", i32 4}
!1 = !{!"clang version 10.0.0-4ubuntu1 "}
