; ModuleID = 'source-C-CXX/45/3680.cpp'
source_filename = "source-C-CXX/45/3680.cpp"
target datalayout = "e-m:e-p270:32:32-p271:32:32-p272:64:64-i64:64-f80:128-n8:16:32:64-S128"
target triple = "x86_64-pc-linux-gnu"

%"class.std::ios_base::Init" = type { i8 }
%"class.std::basic_istream" = type { i32 (...)**, i64, %"class.std::basic_ios" }
%"class.std::basic_ios" = type { %"class.std::ios_base", %"class.std::basic_ostream"*, i8, i8, %"class.std::basic_streambuf"*, %"class.std::ctype"*, %"class.std::num_put"*, %"class.std::num_get"* }
%"class.std::ios_base" = type { i32 (...)**, i64, i64, i32, i32, i32, %"struct.std::ios_base::_Callback_list"*, %"struct.std::ios_base::_Words", [8 x %"struct.std::ios_base::_Words"], i32, %"struct.std::ios_base::_Words"*, %"class.std::locale" }
%"struct.std::ios_base::_Callback_list" = type { %"struct.std::ios_base::_Callback_list"*, void (i32, %"class.std::ios_base"*, i32)*, i32, i32 }
%"struct.std::ios_base::_Words" = type { i8*, i64 }
%"class.std::locale" = type { %"class.std::locale::_Impl"* }
%"class.std::locale::_Impl" = type { i32, %"class.std::locale::facet"**, i64, %"class.std::locale::facet"**, i8** }
%"class.std::locale::facet" = type <{ i32 (...)**, i32, [4 x i8] }>
%"class.std::basic_ostream" = type { i32 (...)**, %"class.std::basic_ios" }
%"class.std::basic_streambuf" = type { i32 (...)**, i8*, i8*, i8*, i8*, i8*, i8*, %"class.std::locale" }
%"class.std::ctype" = type <{ %"class.std::locale::facet.base", [4 x i8], %struct.__locale_struct*, i8, [7 x i8], i32*, i32*, i16*, i8, [256 x i8], [256 x i8], i8, [6 x i8] }>
%"class.std::locale::facet.base" = type <{ i32 (...)**, i32 }>
%struct.__locale_struct = type { [13 x %struct.__locale_data*], i16*, i32*, i32*, [13 x i8*] }
%struct.__locale_data = type opaque
%"class.std::num_put" = type { %"class.std::locale::facet.base", [4 x i8] }
%"class.std::num_get" = type { %"class.std::locale::facet.base", [4 x i8] }

@_ZStL8__ioinit = internal global %"class.std::ios_base::Init" zeroinitializer, align 1
@__dso_handle = external hidden global i8
@a = dso_local global [105 x [105 x i32]] zeroinitializer, align 16
@__const.main.dx = private unnamed_addr constant [4 x i32] [i32 0, i32 1, i32 0, i32 -1], align 16
@__const.main.dy = private unnamed_addr constant [4 x i32] [i32 1, i32 0, i32 -1, i32 0], align 16
@_ZSt3cin = external global %"class.std::basic_istream", align 8
@_ZSt4cout = external global %"class.std::basic_ostream", align 8
@llvm.global_ctors = appending global [1 x { i32, void ()*, i8* }] [{ i32, void ()*, i8* } { i32 65535, void ()* @_GLOBAL__sub_I_3680.cpp, i8* null }]

declare void @_ZNSt8ios_base4InitC1Ev(%"class.std::ios_base::Init"* nonnull align 1 dereferenceable(1)) unnamed_addr #0

; Function Attrs: nounwind
declare void @_ZNSt8ios_base4InitD1Ev(%"class.std::ios_base::Init"* nonnull align 1 dereferenceable(1)) unnamed_addr #1

; Function Attrs: nofree nounwind
declare i32 @__cxa_atexit(void (i8*)*, i8*, i8*) local_unnamed_addr #2

; Function Attrs: mustprogress norecurse sspstrong uwtable
define dso_local i32 @main() local_unnamed_addr #3 {
  %1 = alloca i32, align 4
  %2 = alloca i32, align 4
  %3 = bitcast i32* %1 to i8*
  call void @llvm.lifetime.start.p0i8(i64 4, i8* nonnull %3) #7
  %4 = bitcast i32* %2 to i8*
  call void @llvm.lifetime.start.p0i8(i64 4, i8* nonnull %4) #7
  %5 = call nonnull align 8 dereferenceable(16) %"class.std::basic_istream"* @_ZNSirsERi(%"class.std::basic_istream"* nonnull align 8 dereferenceable(16) @_ZSt3cin, i32* nonnull align 4 dereferenceable(4) %1)
  %6 = call nonnull align 8 dereferenceable(16) %"class.std::basic_istream"* @_ZNSirsERi(%"class.std::basic_istream"* nonnull align 8 dereferenceable(16) %5, i32* nonnull align 4 dereferenceable(4) %2)
  %7 = load i32, i32* %1, align 4, !tbaa !5
  %8 = icmp slt i32 %7, 1
  %9 = load i32, i32* %2, align 4
  %10 = icmp slt i32 %9, 1
  %11 = select i1 %8, i1 true, i1 %10
  br i1 %11, label %17, label %12

12:                                               ; preds = %0, %33
  %13 = phi i32 [ %34, %33 ], [ %7, %0 ]
  %14 = phi i32 [ %35, %33 ], [ %9, %0 ]
  %15 = phi i64 [ %36, %33 ], [ 1, %0 ]
  %16 = icmp slt i32 %14, 1
  br i1 %16, label %33, label %39

17:                                               ; preds = %33, %0
  %18 = load i32, i32* getelementptr inbounds ([105 x [105 x i32]], [105 x [105 x i32]]* @a, i64 0, i64 1, i64 1), align 8, !tbaa !5
  %19 = call nonnull align 8 dereferenceable(8) %"class.std::basic_ostream"* @_ZNSolsEi(%"class.std::basic_ostream"* nonnull align 8 dereferenceable(8) @_ZSt4cout, i32 %18)
  %20 = bitcast %"class.std::basic_ostream"* %19 to i8**
  %21 = load i8*, i8** %20, align 8, !tbaa !9
  %22 = getelementptr i8, i8* %21, i64 -24
  %23 = bitcast i8* %22 to i64*
  %24 = load i64, i64* %23, align 8
  %25 = bitcast %"class.std::basic_ostream"* %19 to i8*
  %26 = add nsw i64 %24, 240
  %27 = getelementptr inbounds i8, i8* %25, i64 %26
  %28 = bitcast i8* %27 to %"class.std::ctype"**
  %29 = load %"class.std::ctype"*, %"class.std::ctype"** %28, align 8, !tbaa !11
  %30 = icmp eq %"class.std::ctype"* %29, null
  br i1 %30, label %47, label %48

31:                                               ; preds = %39
  %32 = load i32, i32* %1, align 4, !tbaa !5
  br label %33

33:                                               ; preds = %31, %12
  %34 = phi i32 [ %32, %31 ], [ %13, %12 ]
  %35 = phi i32 [ %44, %31 ], [ %14, %12 ]
  %36 = add nuw nsw i64 %15, 1
  %37 = sext i32 %34 to i64
  %38 = icmp slt i64 %15, %37
  br i1 %38, label %12, label %17, !llvm.loop !15

39:                                               ; preds = %12, %39
  %40 = phi i64 [ %43, %39 ], [ 1, %12 ]
  %41 = getelementptr inbounds [105 x [105 x i32]], [105 x [105 x i32]]* @a, i64 0, i64 %15, i64 %40
  %42 = call nonnull align 8 dereferenceable(16) %"class.std::basic_istream"* @_ZNSirsERi(%"class.std::basic_istream"* nonnull align 8 dereferenceable(16) @_ZSt3cin, i32* nonnull align 4 dereferenceable(4) %41)
  %43 = add nuw nsw i64 %40, 1
  %44 = load i32, i32* %2, align 4, !tbaa !5
  %45 = sext i32 %44 to i64
  %46 = icmp slt i64 %40, %45
  br i1 %46, label %39, label %31, !llvm.loop !18

47:                                               ; preds = %98, %17
  call void @_ZSt16__throw_bad_castv() #8
  unreachable

48:                                               ; preds = %17, %98
  %49 = phi %"class.std::ctype"* [ %116, %98 ], [ %29, %17 ]
  %50 = phi %"class.std::basic_ostream"* [ %106, %98 ], [ %19, %17 ]
  %51 = phi i32* [ %105, %98 ], [ getelementptr inbounds ([105 x [105 x i32]], [105 x [105 x i32]]* @a, i64 0, i64 1, i64 1), %17 ]
  %52 = phi i32 [ %104, %98 ], [ 0, %17 ]
  %53 = phi i32 [ %103, %98 ], [ 1, %17 ]
  %54 = phi i32 [ %102, %98 ], [ 1, %17 ]
  %55 = getelementptr inbounds %"class.std::ctype", %"class.std::ctype"* %49, i64 0, i32 8
  %56 = load i8, i8* %55, align 8, !tbaa !19
  %57 = icmp eq i8 %56, 0
  br i1 %57, label %61, label %58

58:                                               ; preds = %48
  %59 = getelementptr inbounds %"class.std::ctype", %"class.std::ctype"* %49, i64 0, i32 9, i64 10
  %60 = load i8, i8* %59, align 1, !tbaa !21
  br label %67

61:                                               ; preds = %48
  call void @_ZNKSt5ctypeIcE13_M_widen_initEv(%"class.std::ctype"* nonnull align 8 dereferenceable(570) %49)
  %62 = bitcast %"class.std::ctype"* %49 to i8 (%"class.std::ctype"*, i8)***
  %63 = load i8 (%"class.std::ctype"*, i8)**, i8 (%"class.std::ctype"*, i8)*** %62, align 8, !tbaa !9
  %64 = getelementptr inbounds i8 (%"class.std::ctype"*, i8)*, i8 (%"class.std::ctype"*, i8)** %63, i64 6
  %65 = load i8 (%"class.std::ctype"*, i8)*, i8 (%"class.std::ctype"*, i8)** %64, align 8
  %66 = call signext i8 %65(%"class.std::ctype"* nonnull align 8 dereferenceable(570) %49, i8 signext 10)
  br label %67

67:                                               ; preds = %58, %61
  %68 = phi i8 [ %60, %58 ], [ %66, %61 ]
  %69 = call nonnull align 8 dereferenceable(8) %"class.std::basic_ostream"* @_ZNSo3putEc(%"class.std::basic_ostream"* nonnull align 8 dereferenceable(8) %50, i8 signext %68)
  %70 = call nonnull align 8 dereferenceable(8) %"class.std::basic_ostream"* @_ZNSo5flushEv(%"class.std::basic_ostream"* nonnull align 8 dereferenceable(8) %69)
  store i32 0, i32* %51, align 4, !tbaa !5
  %71 = sext i32 %52 to i64
  %72 = getelementptr inbounds [4 x i32], [4 x i32]* @__const.main.dx, i64 0, i64 %71
  %73 = load i32, i32* %72, align 4, !tbaa !5
  %74 = add nsw i32 %73, %54
  %75 = sext i32 %74 to i64
  %76 = getelementptr inbounds [4 x i32], [4 x i32]* @__const.main.dy, i64 0, i64 %71
  %77 = load i32, i32* %76, align 4, !tbaa !5
  %78 = add nsw i32 %77, %53
  %79 = sext i32 %78 to i64
  %80 = getelementptr inbounds [105 x [105 x i32]], [105 x [105 x i32]]* @a, i64 0, i64 %75, i64 %79
  %81 = load i32, i32* %80, align 4, !tbaa !5
  %82 = icmp sgt i32 %81, 0
  br i1 %82, label %98, label %83

83:                                               ; preds = %67
  %84 = add nsw i32 %52, 1
  %85 = srem i32 %84, 4
  %86 = sext i32 %85 to i64
  %87 = getelementptr inbounds [4 x i32], [4 x i32]* @__const.main.dx, i64 0, i64 %86
  %88 = load i32, i32* %87, align 4, !tbaa !5
  %89 = add nsw i32 %88, %54
  %90 = sext i32 %89 to i64
  %91 = getelementptr inbounds [4 x i32], [4 x i32]* @__const.main.dy, i64 0, i64 %86
  %92 = load i32, i32* %91, align 4, !tbaa !5
  %93 = add nsw i32 %92, %53
  %94 = sext i32 %93 to i64
  %95 = getelementptr inbounds [105 x [105 x i32]], [105 x [105 x i32]]* @a, i64 0, i64 %90, i64 %94
  %96 = load i32, i32* %95, align 4, !tbaa !5
  %97 = icmp eq i32 %96, 0
  br i1 %97, label %118, label %98

98:                                               ; preds = %83, %67
  %99 = phi i32 [ %96, %83 ], [ %81, %67 ]
  %100 = phi i64 [ %94, %83 ], [ %79, %67 ]
  %101 = phi i64 [ %90, %83 ], [ %75, %67 ]
  %102 = phi i32 [ %89, %83 ], [ %74, %67 ]
  %103 = phi i32 [ %93, %83 ], [ %78, %67 ]
  %104 = phi i32 [ %85, %83 ], [ %52, %67 ]
  %105 = getelementptr inbounds [105 x [105 x i32]], [105 x [105 x i32]]* @a, i64 0, i64 %101, i64 %100
  %106 = call nonnull align 8 dereferenceable(8) %"class.std::basic_ostream"* @_ZNSolsEi(%"class.std::basic_ostream"* nonnull align 8 dereferenceable(8) @_ZSt4cout, i32 %99)
  %107 = bitcast %"class.std::basic_ostream"* %106 to i8**
  %108 = load i8*, i8** %107, align 8, !tbaa !9
  %109 = getelementptr i8, i8* %108, i64 -24
  %110 = bitcast i8* %109 to i64*
  %111 = load i64, i64* %110, align 8
  %112 = bitcast %"class.std::basic_ostream"* %106 to i8*
  %113 = add nsw i64 %111, 240
  %114 = getelementptr inbounds i8, i8* %112, i64 %113
  %115 = bitcast i8* %114 to %"class.std::ctype"**
  %116 = load %"class.std::ctype"*, %"class.std::ctype"** %115, align 8, !tbaa !11
  %117 = icmp eq %"class.std::ctype"* %116, null
  br i1 %117, label %47, label %48, !llvm.loop !22

118:                                              ; preds = %83
  call void @llvm.lifetime.end.p0i8(i64 4, i8* nonnull %4) #7
  call void @llvm.lifetime.end.p0i8(i64 4, i8* nonnull %3) #7
  ret i32 0
}

; Function Attrs: argmemonly mustprogress nofree nosync nounwind willreturn
declare void @llvm.lifetime.start.p0i8(i64 immarg, i8* nocapture) #4

declare nonnull align 8 dereferenceable(16) %"class.std::basic_istream"* @_ZNSirsERi(%"class.std::basic_istream"* nonnull align 8 dereferenceable(16), i32* nonnull align 4 dereferenceable(4)) local_unnamed_addr #0

; Function Attrs: argmemonly mustprogress nofree nosync nounwind willreturn
declare void @llvm.lifetime.end.p0i8(i64 immarg, i8* nocapture) #4

declare nonnull align 8 dereferenceable(8) %"class.std::basic_ostream"* @_ZNSolsEi(%"class.std::basic_ostream"* nonnull align 8 dereferenceable(8), i32) local_unnamed_addr #0

declare nonnull align 8 dereferenceable(8) %"class.std::basic_ostream"* @_ZNSo3putEc(%"class.std::basic_ostream"* nonnull align 8 dereferenceable(8), i8 signext) local_unnamed_addr #0

declare nonnull align 8 dereferenceable(8) %"class.std::basic_ostream"* @_ZNSo5flushEv(%"class.std::basic_ostream"* nonnull align 8 dereferenceable(8)) local_unnamed_addr #0

; Function Attrs: noreturn
declare void @_ZSt16__throw_bad_castv() local_unnamed_addr #5

declare void @_ZNKSt5ctypeIcE13_M_widen_initEv(%"class.std::ctype"* nonnull align 8 dereferenceable(570)) local_unnamed_addr #0

; Function Attrs: sspstrong uwtable
define internal void @_GLOBAL__sub_I_3680.cpp() #6 section ".text.startup" {
  tail call void @_ZNSt8ios_base4InitC1Ev(%"class.std::ios_base::Init"* nonnull align 1 dereferenceable(1) @_ZStL8__ioinit)
  %1 = tail call i32 @__cxa_atexit(void (i8*)* bitcast (void (%"class.std::ios_base::Init"*)* @_ZNSt8ios_base4InitD1Ev to void (i8*)*), i8* getelementptr inbounds (%"class.std::ios_base::Init", %"class.std::ios_base::Init"* @_ZStL8__ioinit, i64 0, i32 0), i8* nonnull @__dso_handle) #7
  ret void
}


!llvm.module.flags = !{!0, !1, !2, !3}
!llvm.ident = !{!4}

!0 = !{i32 1, !"wchar_size", i32 4}
!1 = !{i32 7, !"PIC Level", i32 2}
!2 = !{i32 7, !"PIE Level", i32 2}
!3 = !{i32 7, !"uwtable", i32 1}
!4 = !{!"clang version 13.0.0"}
!5 = !{!6, !6, i64 0}
!6 = !{!"int", !7, i64 0}
!7 = !{!"omnipotent char", !8, i64 0}
!8 = !{!"Simple C++ TBAA"}
!9 = !{!10, !10, i64 0}
!10 = !{!"vtable pointer", !8, i64 0}
!11 = !{!12, !13, i64 240}
!12 = !{!"_ZTSSt9basic_iosIcSt11char_traitsIcEE", !13, i64 216, !7, i64 224, !14, i64 225, !13, i64 232, !13, i64 240, !13, i64 248, !13, i64 256}
!13 = !{!"any pointer", !7, i64 0}
!14 = !{!"bool", !7, i64 0}
!15 = distinct !{!15, !16, !17}
!16 = !{!"llvm.loop.mustprogress"}
!17 = !{!"llvm.loop.unswitch.partial.disable"}
!18 = distinct !{!18, !16}
!19 = !{!20, !7, i64 56}
!20 = !{!"_ZTSSt5ctypeIcE", !13, i64 16, !14, i64 24, !13, i64 32, !13, i64 40, !13, i64 48, !7, i64 56, !7, i64 57, !7, i64 313, !7, i64 569}
!21 = !{!7, !7, i64 0}
!22 = distinct !{!22, !16}
